; ModuleID = '40/2669.c'
source_filename = "40/2669.c"
target datalayout = "e-m:e-p270:32:32-p271:32:32-p272:64:64-i64:64-f80:128-n8:16:32:64-S128"
target triple = "x86_64-pc-linux-gnu"

@.str = private unnamed_addr constant [20 x i8] c"%lf %lf %lf %lf %lf\00", align 1
@.str.1 = private unnamed_addr constant [14 x i8] c"Invalid input\00", align 1
@.str.2 = private unnamed_addr constant [6 x i8] c"%.4lf\00", align 1

; Function Attrs: noinline nounwind uwtable
define dso_local i32 @main() #0 {
  %1 = alloca i32, align 4
  %2 = alloca double, align 8
  %3 = alloca double, align 8
  %4 = alloca double, align 8
  %5 = alloca double, align 8
  %6 = alloca double, align 8
  %7 = alloca double, align 8
  %8 = alloca double, align 8
  %9 = alloca double, align 8
  store i32 0, i32* %1, align 4
  %10 = call i32 (i8*, ...) @__isoc99_scanf(i8* getelementptr inbounds ([20 x i8], [20 x i8]* @.str, i64 0, i64 0), double* %4, double* %5, double* %6, double* %7, double* %8)
  %11 = load double, double* %4, align 8
  %12 = load double, double* %5, align 8
  %13 = fadd double %11, %12
  %14 = load double, double* %6, align 8
  %15 = fadd double %13, %14
  %16 = load double, double* %7, align 8
  %17 = fadd double %15, %16
  %18 = fdiv double %17, 2.000000e+00
  store double %18, double* %3, align 8
  %19 = load double, double* %8, align 8
  %20 = fdiv double %19, 2.000000e+00
  %21 = fdiv double %20, 1.800000e+02
  %22 = fmul double %21, 3.140000e+00
  store double %22, double* %9, align 8
  %23 = load double, double* %3, align 8
  %24 = load double, double* %4, align 8
  %25 = fsub double %23, %24
  %26 = load double, double* %3, align 8
  %27 = load double, double* %5, align 8
  %28 = fsub double %26, %27
  %29 = fmul double %25, %28
  %30 = load double, double* %3, align 8
  %31 = load double, double* %6, align 8
  %32 = fsub double %30, %31
  %33 = fmul double %29, %32
  %34 = load double, double* %3, align 8
  %35 = load double, double* %7, align 8
  %36 = fsub double %34, %35
  %37 = fmul double %33, %36
  %38 = load double, double* %4, align 8
  %39 = load double, double* %5, align 8
  %40 = fmul double %38, %39
  %41 = load double, double* %6, align 8
  %42 = fmul double %40, %41
  %43 = load double, double* %7, align 8
  %44 = fmul double %42, %43
  %45 = load double, double* %8, align 8
  %46 = fdiv double %45, 1.800000e+02
  %47 = fmul double %46, 3.140000e+00
  %48 = call double @cos(double %47) #3
  %49 = fmul double %44, %48
  %50 = fsub double %37, %49
  %51 = fcmp olt double %50, 0.000000e+00
  br i1 %51, label %52, label %54

52:                                               ; preds = %0
  %53 = call i32 (i8*, ...) @printf(i8* getelementptr inbounds ([14 x i8], [14 x i8]* @.str.1, i64 0, i64 0))
  br label %87

54:                                               ; preds = %0
  %55 = load double, double* %3, align 8
  %56 = load double, double* %4, align 8
  %57 = fsub double %55, %56
  %58 = load double, double* %3, align 8
  %59 = load double, double* %5, align 8
  %60 = fsub double %58, %59
  %61 = fmul double %57, %60
  %62 = load double, double* %3, align 8
  %63 = load double, double* %6, align 8
  %64 = fsub double %62, %63
  %65 = fmul double %61, %64
  %66 = load double, double* %3, align 8
  %67 = load double, double* %7, align 8
  %68 = fsub double %66, %67
  %69 = fmul double %65, %68
  %70 = load double, double* %4, align 8
  %71 = load double, double* %5, align 8
  %72 = fmul double %70, %71
  %73 = load double, double* %6, align 8
  %74 = fmul double %72, %73
  %75 = load double, double* %7, align 8
  %76 = fmul double %74, %75
  %77 = load double, double* %9, align 8
  %78 = call double @cos(double %77) #3
  %79 = fmul double %76, %78
  %80 = load double, double* %9, align 8
  %81 = call double @cos(double %80) #3
  %82 = fmul double %79, %81
  %83 = fsub double %69, %82
  %84 = call double @sqrt(double %83) #3
  store double %84, double* %2, align 8
  %85 = load double, double* %2, align 8
  %86 = call i32 (i8*, ...) @printf(i8* getelementptr inbounds ([6 x i8], [6 x i8]* @.str.2, i64 0, i64 0), double %85)
  br label %87

87:                                               ; preds = %54, %52
  ret i32 0
}

declare dso_local i32 @__isoc99_scanf(i8*, ...) #1

; Function Attrs: nounwind
declare dso_local double @cos(double) #2

declare dso_local i32 @printf(i8*, ...) #1

; Function Attrs: nounwind
declare dso_local double @sqrt(double) #2


!llvm.module.flags = !{!0}
!llvm.ident = !{!1}

!0 = !{i32 1, !"wchar_size", i32 4}
!1 = !{!"clang version 10.0.0-4ubuntu1 "}
